; Function Attrs: nounwind uwtable
define hidden range(i32 0, 2) i32 @_PyPegen_lookahead(i32 noundef %0, ptr noundef readonly captures(none) %1, ptr noundef %2) local_unnamed_addr #1 {
  %4 = getelementptr inbounds nuw i8, ptr %2, i64 16
  %5 = load i32, ptr %4, align 8, !tbaa !33
  %6 = tail call ptr %1(ptr noundef %2) #13
  store i32 %5, ptr %4, align 8, !tbaa !33
  %7 = icmp ne ptr %6, null
  %8 = zext i1 %7 to i32
  %9 = icmp eq i32 %0, %8
  %10 = zext i1 %9 to i32
  ret i32 %10
}